target datalayout = "e-m:e-p270:32:32-p271:32:32-p272:64:64-i64:64-i128:128-f80:128-n8:16:32:64-S128"
target triple = "x86_64-pc-linux-gnu"

%struct._GByteArray = type { ptr, i32 }

@proto_lwm = internal global i32 0, align 4
@lwmes_key_str = internal global ptr null, align 8
@lwm_handle = internal global ptr null, align 8
@proto_reg_handoff_lwm.initialized = internal global i8 0, align 1
@.str.92 = private unnamed_addr constant [11 x i8] c"wpan.panid\00", align 1
@.str.93 = private unnamed_addr constant [5 x i8] c"wpan\00", align 1
@.str.94 = private unnamed_addr constant [36 x i8] c"Lightweight Mesh over IEEE 802.15.4\00", align 1
@.str.95 = private unnamed_addr constant [9 x i8] c"lwm_wlan\00", align 1
@lwmes_key_valid = internal global i8 0, align 1
@lwmes_key = internal global [16 x i8] zeroinitializer, align 16

; Function Attrs: alwaysinline nounwind
define internal ptr @memcpy.inline(ptr noalias %0, ptr noalias %1, i64 %2) #3 {
  %4 = alloca ptr, align 8
  %5 = alloca ptr, align 8
  %6 = alloca i64, align 8
  store ptr %0, ptr %4, align 8
  store ptr %1, ptr %5, align 8
  store i64 %2, ptr %6, align 8
  %7 = load ptr, ptr %4, align 8
  %8 = load ptr, ptr %5, align 8
  %9 = load i64, ptr %6, align 8
  %10 = load ptr, ptr %4, align 8
  %11 = call i64 @llvm.objectsize.i64.p0(ptr %10, i1 false, i1 true, i1 true)
  %12 = call ptr @__memcpy_chk(ptr noundef %7, ptr noundef %8, i64 noundef %9, i64 noundef %11) #6
  ret ptr %12
}

; Function Attrs: null_pointer_is_valid sspstrong uwtable
define hidden void @proto_reg_handoff_lwm() #0 {
  %1 = alloca ptr, align 8
  %2 = alloca i8, align 1
  call void @llvm.lifetime.start.p0(i64 8, ptr %1) #6
  call void @llvm.lifetime.start.p0(i64 1, ptr %2) #6
  %3 = load i8, ptr @proto_reg_handoff_lwm.initialized, align 1, !range !6, !noundef !7
  %4 = trunc i8 %3 to i1
  br i1 %4, label %8, label %5

5:                                                ; preds = %0
  %6 = load ptr, ptr @lwm_handle, align 8
  call void @dissector_add_for_decode_as(ptr noundef @.str.92, ptr noundef %6)
  %7 = load i32, ptr @proto_lwm, align 4
  call void @heur_dissector_add(ptr noundef @.str.93, ptr noundef @dissect_lwm_heur, ptr noundef @.str.94, ptr noundef @.str.95, i32 noundef %7, i32 noundef 1)
  store i8 1, ptr @proto_reg_handoff_lwm.initialized, align 1
  br label %8

8:                                                ; preds = %5, %0
  %9 = call ptr @g_byte_array_new()
  store ptr %9, ptr %1, align 8
  %10 = load ptr, ptr @lwmes_key_str, align 8
  %11 = load ptr, ptr %1, align 8
  %12 = call zeroext i1 @hex_str_to_bytes(ptr noundef %10, ptr noundef %11, i1 noundef zeroext false)
  %13 = zext i1 %12 to i8
  store i8 %13, ptr %2, align 1
  %14 = load i8, ptr %2, align 1, !range !6, !noundef !7
  %15 = trunc i8 %14 to i1
  br i1 %15, label %16, label %21

16:                                               ; preds = %8
  %17 = load ptr, ptr %1, align 8
  %18 = getelementptr inbounds nuw %struct._GByteArray, ptr %17, i32 0, i32 1
  %19 = load i32, ptr %18, align 8
  %20 = icmp uge i32 %19, 16
  br label %21

21:                                               ; preds = %16, %8
  %22 = phi i1 [ false, %8 ], [ %20, %16 ]
  %23 = zext i1 %22 to i8
  store i8 %23, ptr @lwmes_key_valid, align 1
  %24 = load i8, ptr @lwmes_key_valid, align 1, !range !6, !noundef !7
  %25 = trunc i8 %24 to i1
  br i1 %25, label %26, label %31

26:                                               ; preds = %21
  %27 = load ptr, ptr %1, align 8
  %28 = getelementptr inbounds nuw %struct._GByteArray, ptr %27, i32 0, i32 0
  %29 = load ptr, ptr %28, align 8
  %30 = call ptr @memcpy.inline(ptr noundef @lwmes_key, ptr noundef %29, i64 noundef 16) #6
  br label %31

31:                                               ; preds = %26, %21
  %32 = load ptr, ptr %1, align 8
  %33 = call ptr @g_byte_array_free(ptr noundef %32, i32 noundef 1)
  call void @llvm.lifetime.end.p0(i64 1, ptr %2) #6
  call void @llvm.lifetime.end.p0(i64 8, ptr %1) #6
  ret void
}