; Function Attrs: null_pointer_is_valid sspstrong uwtable
define hidden void @proto_reg_handoff_lwm() #0 {
  %.b4 = load i1, ptr @proto_reg_handoff_lwm.initialized, align 1
  br i1 %.b4, label %4, label %1

1:                                                ; preds = %0
  %2 = load ptr, ptr @lwm_handle, align 8
  tail call void @dissector_add_for_decode_as(ptr noundef nonnull @.str.92, ptr noundef %2)
  %3 = load i32, ptr @proto_lwm, align 4
  tail call void @heur_dissector_add(ptr noundef nonnull @.str.93, ptr noundef nonnull @dissect_lwm_heur, ptr noundef nonnull @.str.94, ptr noundef nonnull @.str.95, i32 noundef %3, i32 noundef 1)
  store i1 true, ptr @proto_reg_handoff_lwm.initialized, align 1
  br label %4

4:                                                ; preds = %1, %0
  %5 = tail call ptr @g_byte_array_new()
  %6 = load ptr, ptr @lwmes_key_str, align 8
  %7 = tail call zeroext i1 @hex_str_to_bytes(ptr noundef %6, ptr noundef %5, i1 noundef zeroext false)
  br i1 %7, label %8, label %.critedge

8:                                                ; preds = %4
  %9 = getelementptr inbounds nuw i8, ptr %5, i64 8
  %10 = load i32, ptr %9, align 8
  %11 = icmp ugt i32 %10, 15
  %12 = zext i1 %11 to i8
  store i8 %12, ptr @lwmes_key_valid, align 1
  br i1 %11, label %13, label %15

13:                                               ; preds = %8
  %14 = load ptr, ptr %5, align 8
  tail call void @llvm.memcpy.p0.p0.i64(ptr noundef nonnull align 16 dereferenceable(16) @lwmes_key, ptr noundef nonnull align 1 dereferenceable(16) %14, i64 noundef 16, i1 noundef false) #5
  br label %15

.critedge:                                        ; preds = %4
  store i8 0, ptr @lwmes_key_valid, align 1
  br label %15

15:                                               ; preds = %.critedge, %13, %8
  %16 = tail call ptr @g_byte_array_free(ptr noundef %5, i32 noundef 1)
  ret void
}